#include <math.h>
#include <stdio.h>
#include <stdlib.h>
#include <string.h>

int main ()
{
	int m,n,a[200]={0},i;
scanf("%d",&n);
scanf("%d",&m);
for(i=0;i<n;i++)
{
	scanf("%d",&a[i]);
}
for(i=0;i<n;i++)
{
	a[i+n]=a[i];
}
for(i=n-m;i<2*n-m-1;i++)
{
		printf("%d ",a[i]);
}
printf("%d",a[2*n-m-1]);

return 0;
}